target datalayout = "e-m:e-p270:32:32-p271:32:32-p272:64:64-i64:64-i128:128-f80:128-n8:16:32:64-S128"
target triple = "x86_64-pc-linux-gnu"

@__const._blend_Lab_scale.scale = private unnamed_addr constant [4 x float] [float 0x3F847AE140000000, float 7.812500e-03, float 7.812500e-03, float 1.000000e+00], align 16
@__const._blend_Lab_rescale.scale = private unnamed_addr constant [4 x float] [float 1.000000e+02, float 1.280000e+02, float 1.280000e+02, float 1.000000e+00], align 16

; Function Attrs: inlinehint nounwind uwtable
define internal void @_blend_Lab_rescale(ptr noundef %0, ptr noundef %1) #2 {
  %3 = alloca ptr, align 8
  %4 = alloca ptr, align 8
  %5 = alloca [4 x float], align 16
  %6 = alloca i64, align 8
  store ptr %0, ptr %3, align 8, !tbaa !11
  store ptr %1, ptr %4, align 8, !tbaa !11
  call void @llvm.lifetime.start.p0(i64 16, ptr %5) #8
  call void @llvm.memcpy.p0.p0.i64(ptr align 16 %5, ptr align 16 @__const._blend_Lab_rescale.scale, i64 16, i1 false)
  call void @llvm.lifetime.start.p0(i64 8, ptr %6) #8
  store i64 0, ptr %6, align 8, !tbaa !43
  br label %7

7:                                                ; preds = %23, %2
  %8 = load i64, ptr %6, align 8, !tbaa !43
  %9 = icmp ult i64 %8, 4
  br i1 %9, label %11, label %10

10:                                               ; preds = %7
  call void @llvm.lifetime.end.p0(i64 8, ptr %6) #8
  br label %26

11:                                               ; preds = %7
  %12 = load ptr, ptr %3, align 8, !tbaa !11
  %13 = load i64, ptr %6, align 8, !tbaa !43
  %14 = getelementptr inbounds nuw float, ptr %12, i64 %13
  %15 = load float, ptr %14, align 4, !tbaa !45
  %16 = load i64, ptr %6, align 8, !tbaa !43
  %17 = getelementptr inbounds nuw [4 x float], ptr %5, i64 0, i64 %16
  %18 = load float, ptr %17, align 4, !tbaa !45
  %19 = fmul reassoc nsz arcp contract afn float %15, %18
  %20 = load ptr, ptr %4, align 8, !tbaa !11
  %21 = load i64, ptr %6, align 8, !tbaa !43
  %22 = getelementptr inbounds nuw float, ptr %20, i64 %21
  store float %19, ptr %22, align 4, !tbaa !45
  br label %23

23:                                               ; preds = %11
  %24 = load i64, ptr %6, align 8, !tbaa !43
  %25 = add i64 %24, 1
  store i64 %25, ptr %6, align 8, !tbaa !43
  br label %7

26:                                               ; preds = %10
  call void @llvm.lifetime.end.p0(i64 16, ptr %5) #8
  ret void
}

; Function Attrs: inlinehint nounwind uwtable
define internal float @_CLAMP(float noundef %0, float noundef %1, float noundef %2) #2 {
  %4 = alloca float, align 4
  %5 = alloca float, align 4
  %6 = alloca float, align 4
  store float %0, ptr %4, align 4, !tbaa !45
  store float %1, ptr %5, align 4, !tbaa !45
  store float %2, ptr %6, align 4, !tbaa !45
  %7 = load float, ptr %4, align 4, !tbaa !45
  %8 = load float, ptr %5, align 4, !tbaa !45
  %9 = call reassoc nsz arcp contract afn float @llvm.maxnum.f32(float %7, float %8)
  %10 = load float, ptr %6, align 4, !tbaa !45
  %11 = call reassoc nsz arcp contract afn float @llvm.minnum.f32(float %9, float %10)
  ret float %11
}

; Function Attrs: inlinehint nounwind uwtable
define internal void @_blend_Lab_scale(ptr noundef %0, ptr noundef %1) #2 {
  %3 = alloca ptr, align 8
  %4 = alloca ptr, align 8
  %5 = alloca [4 x float], align 16
  %6 = alloca i64, align 8
  store ptr %0, ptr %3, align 8, !tbaa !11
  store ptr %1, ptr %4, align 8, !tbaa !11
  call void @llvm.lifetime.start.p0(i64 16, ptr %5) #8
  call void @llvm.memcpy.p0.p0.i64(ptr align 16 %5, ptr align 16 @__const._blend_Lab_scale.scale, i64 16, i1 false)
  call void @llvm.lifetime.start.p0(i64 8, ptr %6) #8
  store i64 0, ptr %6, align 8, !tbaa !43
  br label %7

7:                                                ; preds = %23, %2
  %8 = load i64, ptr %6, align 8, !tbaa !43
  %9 = icmp ult i64 %8, 4
  br i1 %9, label %11, label %10

10:                                               ; preds = %7
  call void @llvm.lifetime.end.p0(i64 8, ptr %6) #8
  br label %26

11:                                               ; preds = %7
  %12 = load ptr, ptr %3, align 8, !tbaa !11
  %13 = load i64, ptr %6, align 8, !tbaa !43
  %14 = getelementptr inbounds nuw float, ptr %12, i64 %13
  %15 = load float, ptr %14, align 4, !tbaa !45
  %16 = load i64, ptr %6, align 8, !tbaa !43
  %17 = getelementptr inbounds nuw [4 x float], ptr %5, i64 0, i64 %16
  %18 = load float, ptr %17, align 4, !tbaa !45
  %19 = fmul reassoc nsz arcp contract afn float %15, %18
  %20 = load ptr, ptr %4, align 8, !tbaa !11
  %21 = load i64, ptr %6, align 8, !tbaa !43
  %22 = getelementptr inbounds nuw float, ptr %20, i64 %21
  store float %19, ptr %22, align 4, !tbaa !45
  br label %23

23:                                               ; preds = %11
  %24 = load i64, ptr %6, align 8, !tbaa !43
  %25 = add i64 %24, 1
  store i64 %25, ptr %6, align 8, !tbaa !43
  br label %7

26:                                               ; preds = %10
  call void @llvm.lifetime.end.p0(i64 16, ptr %5) #8
  ret void
}

; Function Attrs: nounwind uwtable
define internal void @_blend_darken(ptr noundef %0, ptr noundef %1, ptr noundef %2, ptr noalias noundef %3, i64 noundef %4, ptr noundef %5, ptr noundef %6) #0 {
  %8 = alloca ptr, align 8
  %9 = alloca ptr, align 8
  %10 = alloca ptr, align 8
  %11 = alloca ptr, align 8
  %12 = alloca i64, align 8
  %13 = alloca ptr, align 8
  %14 = alloca ptr, align 8
  %15 = alloca i64, align 8
  %16 = alloca i64, align 8
  %17 = alloca float, align 4
  %18 = alloca [4 x float], align 16
  %19 = alloca [4 x float], align 16
  store ptr %0, ptr %8, align 8, !tbaa !11
  store ptr %1, ptr %9, align 8, !tbaa !11
  store ptr %2, ptr %10, align 8, !tbaa !11
  store ptr %3, ptr %11, align 8, !tbaa !11
  store i64 %4, ptr %12, align 8, !tbaa !43
  store ptr %5, ptr %13, align 8, !tbaa !11
  store ptr %6, ptr %14, align 8, !tbaa !11
  call void @llvm.lifetime.start.p0(i64 8, ptr %15) #8
  store i64 0, ptr %15, align 8, !tbaa !43
  call void @llvm.lifetime.start.p0(i64 8, ptr %16) #8
  store i64 0, ptr %16, align 8, !tbaa !43
  br label %20

20:                                               ; preds = %140, %7
  %21 = load i64, ptr %15, align 8, !tbaa !43
  %22 = load i64, ptr %12, align 8, !tbaa !43
  %23 = icmp ult i64 %21, %22
  br i1 %23, label %25, label %24

24:                                               ; preds = %20
  call void @llvm.lifetime.end.p0(i64 8, ptr %16) #8
  call void @llvm.lifetime.end.p0(i64 8, ptr %15) #8
  br label %145

25:                                               ; preds = %20
  call void @llvm.lifetime.start.p0(i64 4, ptr %17) #8
  %26 = load ptr, ptr %11, align 8, !tbaa !11
  %27 = load i64, ptr %15, align 8, !tbaa !43
  %28 = getelementptr inbounds nuw float, ptr %26, i64 %27
  %29 = load float, ptr %28, align 4, !tbaa !45
  store float %29, ptr %17, align 4, !tbaa !45
  call void @llvm.lifetime.start.p0(i64 16, ptr %18) #8
  call void @llvm.lifetime.start.p0(i64 16, ptr %19) #8
  %30 = load ptr, ptr %8, align 8, !tbaa !11
  %31 = load i64, ptr %16, align 8, !tbaa !43
  %32 = getelementptr inbounds nuw float, ptr %30, i64 %31
  %33 = getelementptr inbounds [4 x float], ptr %18, i64 0, i64 0
  call void @_blend_Lab_scale(ptr noundef %32, ptr noundef %33)
  %34 = load ptr, ptr %9, align 8, !tbaa !11
  %35 = load i64, ptr %16, align 8, !tbaa !43
  %36 = getelementptr inbounds nuw float, ptr %34, i64 %35
  %37 = getelementptr inbounds [4 x float], ptr %19, i64 0, i64 0
  call void @_blend_Lab_scale(ptr noundef %36, ptr noundef %37)
  %38 = getelementptr inbounds [4 x float], ptr %18, i64 0, i64 0
  %39 = load float, ptr %38, align 16, !tbaa !45
  %40 = load float, ptr %17, align 4, !tbaa !45
  %41 = fsub reassoc nsz arcp contract afn float 1.000000e+00, %40
  %42 = fmul reassoc nsz arcp contract afn float %39, %41
  %43 = getelementptr inbounds [4 x float], ptr %18, i64 0, i64 0
  %44 = load float, ptr %43, align 16, !tbaa !45
  %45 = getelementptr inbounds [4 x float], ptr %19, i64 0, i64 0
  %46 = load float, ptr %45, align 16, !tbaa !45
  %47 = fcmp reassoc nsz arcp contract afn olt float %44, %46
  br i1 %47, label %48, label %51

48:                                               ; preds = %25
  %49 = getelementptr inbounds [4 x float], ptr %18, i64 0, i64 0
  %50 = load float, ptr %49, align 16, !tbaa !45
  br label %54

51:                                               ; preds = %25
  %52 = getelementptr inbounds [4 x float], ptr %19, i64 0, i64 0
  %53 = load float, ptr %52, align 16, !tbaa !45
  br label %54

54:                                               ; preds = %51, %48
  %55 = phi reassoc nsz arcp contract afn float [ %50, %48 ], [ %53, %51 ]
  %56 = load float, ptr %17, align 4, !tbaa !45
  %57 = fmul reassoc nsz arcp contract afn float %55, %56
  %58 = fadd reassoc nsz arcp contract afn float %42, %57
  %59 = load ptr, ptr %13, align 8, !tbaa !11
  %60 = getelementptr inbounds float, ptr %59, i64 0
  %61 = load float, ptr %60, align 4, !tbaa !45
  %62 = load ptr, ptr %14, align 8, !tbaa !11
  %63 = getelementptr inbounds float, ptr %62, i64 0
  %64 = load float, ptr %63, align 4, !tbaa !45
  %65 = call reassoc nsz arcp contract afn float @_CLAMP(float noundef %58, float noundef %61, float noundef %64)
  %66 = getelementptr inbounds [4 x float], ptr %19, i64 0, i64 0
  store float %65, ptr %66, align 16, !tbaa !45
  %67 = getelementptr inbounds [4 x float], ptr %18, i64 0, i64 1
  %68 = load float, ptr %67, align 4, !tbaa !45
  %69 = getelementptr inbounds [4 x float], ptr %19, i64 0, i64 0
  %70 = load float, ptr %69, align 16, !tbaa !45
  %71 = getelementptr inbounds [4 x float], ptr %18, i64 0, i64 0
  %72 = load float, ptr %71, align 16, !tbaa !45
  %73 = fsub reassoc nsz arcp contract afn float %70, %72
  %74 = call reassoc nsz arcp contract afn float @llvm.fabs.f32(float %73)
  %75 = fsub reassoc nsz arcp contract afn float 1.000000e+00, %74
  %76 = fmul reassoc nsz arcp contract afn float %68, %75
  %77 = getelementptr inbounds [4 x float], ptr %18, i64 0, i64 1
  %78 = load float, ptr %77, align 4, !tbaa !45
  %79 = getelementptr inbounds [4 x float], ptr %19, i64 0, i64 1
  %80 = load float, ptr %79, align 4, !tbaa !45
  %81 = fadd reassoc nsz arcp contract afn float %78, %80
  %82 = fmul reassoc nsz arcp contract afn float 5.000000e-01, %81
  %83 = getelementptr inbounds [4 x float], ptr %19, i64 0, i64 0
  %84 = load float, ptr %83, align 16, !tbaa !45
  %85 = getelementptr inbounds [4 x float], ptr %18, i64 0, i64 0
  %86 = load float, ptr %85, align 16, !tbaa !45
  %87 = fsub reassoc nsz arcp contract afn float %84, %86
  %88 = call reassoc nsz arcp contract afn float @llvm.fabs.f32(float %87)
  %89 = fmul reassoc nsz arcp contract afn float %82, %88
  %90 = fadd reassoc nsz arcp contract afn float %76, %89
  %91 = load ptr, ptr %13, align 8, !tbaa !11
  %92 = getelementptr inbounds float, ptr %91, i64 1
  %93 = load float, ptr %92, align 4, !tbaa !45
  %94 = load ptr, ptr %14, align 8, !tbaa !11
  %95 = getelementptr inbounds float, ptr %94, i64 1
  %96 = load float, ptr %95, align 4, !tbaa !45
  %97 = call reassoc nsz arcp contract afn float @_CLAMP(float noundef %90, float noundef %93, float noundef %96)
  %98 = getelementptr inbounds [4 x float], ptr %19, i64 0, i64 1
  store float %97, ptr %98, align 4, !tbaa !45
  %99 = getelementptr inbounds [4 x float], ptr %18, i64 0, i64 2
  %100 = load float, ptr %99, align 8, !tbaa !45
  %101 = getelementptr inbounds [4 x float], ptr %19, i64 0, i64 0
  %102 = load float, ptr %101, align 16, !tbaa !45
  %103 = getelementptr inbounds [4 x float], ptr %18, i64 0, i64 0
  %104 = load float, ptr %103, align 16, !tbaa !45
  %105 = fsub reassoc nsz arcp contract afn float %102, %104
  %106 = call reassoc nsz arcp contract afn float @llvm.fabs.f32(float %105)
  %107 = fsub reassoc nsz arcp contract afn float 1.000000e+00, %106
  %108 = fmul reassoc nsz arcp contract afn float %100, %107
  %109 = getelementptr inbounds [4 x float], ptr %18, i64 0, i64 2
  %110 = load float, ptr %109, align 8, !tbaa !45
  %111 = getelementptr inbounds [4 x float], ptr %19, i64 0, i64 2
  %112 = load float, ptr %111, align 8, !tbaa !45
  %113 = fadd reassoc nsz arcp contract afn float %110, %112
  %114 = fmul reassoc nsz arcp contract afn float 5.000000e-01, %113
  %115 = getelementptr inbounds [4 x float], ptr %19, i64 0, i64 0
  %116 = load float, ptr %115, align 16, !tbaa !45
  %117 = getelementptr inbounds [4 x float], ptr %18, i64 0, i64 0
  %118 = load float, ptr %117, align 16, !tbaa !45
  %119 = fsub reassoc nsz arcp contract afn float %116, %118
  %120 = call reassoc nsz arcp contract afn float @llvm.fabs.f32(float %119)
  %121 = fmul reassoc nsz arcp contract afn float %114, %120
  %122 = fadd reassoc nsz arcp contract afn float %108, %121
  %123 = load ptr, ptr %13, align 8, !tbaa !11
  %124 = getelementptr inbounds float, ptr %123, i64 2
  %125 = load float, ptr %124, align 4, !tbaa !45
  %126 = load ptr, ptr %14, align 8, !tbaa !11
  %127 = getelementptr inbounds float, ptr %126, i64 2
  %128 = load float, ptr %127, align 4, !tbaa !45
  %129 = call reassoc nsz arcp contract afn float @_CLAMP(float noundef %122, float noundef %125, float noundef %128)
  %130 = getelementptr inbounds [4 x float], ptr %19, i64 0, i64 2
  store float %129, ptr %130, align 8, !tbaa !45
  %131 = getelementptr inbounds [4 x float], ptr %19, i64 0, i64 0
  %132 = load ptr, ptr %10, align 8, !tbaa !11
  %133 = load i64, ptr %16, align 8, !tbaa !43
  %134 = getelementptr inbounds nuw float, ptr %132, i64 %133
  call void @_blend_Lab_rescale(ptr noundef %131, ptr noundef %134)
  %135 = load float, ptr %17, align 4, !tbaa !45
  %136 = load ptr, ptr %10, align 8, !tbaa !11
  %137 = load i64, ptr %16, align 8, !tbaa !43
  %138 = add i64 %137, 3
  %139 = getelementptr inbounds nuw float, ptr %136, i64 %138
  store float %135, ptr %139, align 4, !tbaa !45
  call void @llvm.lifetime.end.p0(i64 16, ptr %19) #8
  call void @llvm.lifetime.end.p0(i64 16, ptr %18) #8
  call void @llvm.lifetime.end.p0(i64 4, ptr %17) #8
  br label %140

140:                                              ; preds = %54
  %141 = load i64, ptr %15, align 8, !tbaa !43
  %142 = add i64 %141, 1
  store i64 %142, ptr %15, align 8, !tbaa !43
  %143 = load i64, ptr %16, align 8, !tbaa !43
  %144 = add i64 %143, 4
  store i64 %144, ptr %16, align 8, !tbaa !43
  br label %20

145:                                              ; preds = %24
  ret void
}